; Function Attrs: mustprogress uwtable
define dso_local noundef nonnull align 8 dereferenceable(248) ptr @_ZN14cmConfigureLog9BeginLineEv(ptr noundef nonnull align 8 dereferenceable(584) %0) local_unnamed_addr #5 align 2 {
  %2 = getelementptr inbounds nuw i8, ptr %0, i64 568
  %3 = load i32, ptr %2, align 8, !tbaa !20
  %.not = icmp eq i32 %3, 0
  br i1 %.not, label %._crit_edge, label %.lr.ph

.lr.ph:                                           ; preds = %1
  %4 = getelementptr inbounds nuw i8, ptr %0, i64 56
  br label %6

._crit_edge:                                      ; preds = %6, %1
  %5 = getelementptr inbounds nuw i8, ptr %0, i64 56
  ret ptr %5

6:                                                ; preds = %.lr.ph, %6
  %.02 = phi i32 [ 0, %.lr.ph ], [ %8, %6 ]
  %7 = tail call noundef nonnull align 8 dereferenceable(8) ptr @_ZSt16__ostream_insertIcSt11char_traitsIcEERSt13basic_ostreamIT_T0_ES6_PKS3_l(ptr noundef nonnull align 8 dereferenceable(8) %4, ptr noundef nonnull @.str.9, i64 noundef 2)
  %8 = add nuw i32 %.02, 1
  %9 = load i32, ptr %2, align 8, !tbaa !20
  %10 = icmp ult i32 %8, %9
  br i1 %10, label %6, label %._crit_edge, !llvm.loop !94
}